target datalayout = "e-m:e-p270:32:32-p271:32:32-p272:64:64-i64:64-i128:128-f80:128-n8:16:32:64-S128"
target triple = "x86_64-pc-linux-gnu"

%struct.PROCLOCKTAG = type { ptr, ptr }
%struct.LOCK = type { %struct.LOCKTAG, i32, i32, %struct.dlist_head, %struct.dclist_head, [10 x i32], i32, [10 x i32], i32 }
%struct.LOCKTAG = type { i32, i32, i32, i16, i8, i8 }
%struct.dlist_head = type { %struct.dlist_node }
%struct.dlist_node = type { ptr, ptr }
%struct.dclist_head = type { %struct.dlist_head, i32 }
%union.LWLockPadded = type { %struct.LWLock, [112 x i8] }
%struct.LWLock = type { i16, %struct.pg_atomic_uint32, %struct.proclist_head }
%struct.pg_atomic_uint32 = type { i32 }
%struct.proclist_head = type { i32, i32 }
%struct.PROCLOCK = type { %struct.PROCLOCKTAG, ptr, i32, i32, %struct.dlist_node, %struct.dlist_node }
%struct.PGPROC = type { %struct.dlist_node, ptr, ptr, i32, %struct.Latch, i32, i32, i32, i32, %struct.anon, i32, i32, i32, i8, i8, i8, i8, %struct.proclist_node, %struct.proclist_node, ptr, ptr, i32, i32, %struct.pg_atomic_uint64, i32, i8, i64, i32, %struct.dlist_node, [16 x %struct.dlist_head], %struct.XidCacheStatus, %struct.XidCache, i8, %struct.pg_atomic_uint32, i32, i32, i8, %struct.pg_atomic_uint32, i32, i32, i64, i64, %struct.LWLock, ptr, ptr, i8, i32, ptr, %struct.dlist_head, %struct.dlist_node }
%struct.Latch = type { i32, i32, i8, i32 }
%struct.anon = type { i32, i32 }
%struct.proclist_node = type { i32, i32 }
%struct.pg_atomic_uint64 = type { i64 }
%struct.XidCacheStatus = type { i8, i8 }
%struct.XidCache = type { [64 x i32] }
%struct.HASH_SEQ_STATUS = type { ptr, i32, ptr, i8, i32 }
%struct.xl_standby_lock = type { i32, i32, i32 }

@LockMethodProcLockHash = internal global ptr null, align 8
@MainLWLockArray = external global ptr, align 8

; Function Attrs: nounwind uwtable
define dso_local ptr @GetRunningTransactionLocks(ptr noundef %0) #0 {
  %2 = alloca ptr, align 8
  %3 = alloca ptr, align 8
  %4 = alloca ptr, align 8
  %5 = alloca %struct.HASH_SEQ_STATUS, align 8
  %6 = alloca i32, align 4
  %7 = alloca i32, align 4
  %8 = alloca i32, align 4
  %9 = alloca ptr, align 8
  %10 = alloca ptr, align 8
  %11 = alloca i32, align 4
  %12 = alloca i32, align 4
  store ptr %0, ptr %2, align 8
  call void @llvm.lifetime.start.p0(i64 8, ptr %3) #9
  call void @llvm.lifetime.start.p0(i64 8, ptr %4) #9
  call void @llvm.lifetime.start.p0(i64 32, ptr %5) #9
  call void @llvm.lifetime.start.p0(i64 4, ptr %6) #9
  call void @llvm.lifetime.start.p0(i64 4, ptr %7) #9
  call void @llvm.lifetime.start.p0(i64 4, ptr %8) #9
  store i32 0, ptr %6, align 4
  br label %13

13:                                               ; preds = %23, %1
  %14 = load i32, ptr %6, align 4
  %15 = icmp slt i32 %14, 16
  br i1 %15, label %16, label %26

16:                                               ; preds = %13
  %17 = load ptr, ptr @MainLWLockArray, align 8
  %18 = load i32, ptr %6, align 4
  %19 = add i32 181, %18
  %20 = sext i32 %19 to i64
  %21 = getelementptr inbounds %union.LWLockPadded, ptr %17, i64 %20
  %22 = call zeroext i1 @LWLockAcquire(ptr noundef %21, i32 noundef 1)
  br label %23

23:                                               ; preds = %16
  %24 = load i32, ptr %6, align 4
  %25 = add i32 %24, 1
  store i32 %25, ptr %6, align 4
  br label %13, !llvm.loop !67

26:                                               ; preds = %13
  %27 = load ptr, ptr @LockMethodProcLockHash, align 8
  %28 = call i64 @hash_get_num_entries(ptr noundef %27)
  %29 = trunc i64 %28 to i32
  store i32 %29, ptr %8, align 4
  %30 = load i32, ptr %8, align 4
  %31 = sext i32 %30 to i64
  %32 = mul i64 %31, 12
  %33 = call ptr @palloc(i64 noundef %32)
  store ptr %33, ptr %3, align 8
  %34 = load ptr, ptr @LockMethodProcLockHash, align 8
  call void @hash_seq_init(ptr noundef %5, ptr noundef %34)
  store i32 0, ptr %7, align 4
  br label %35

35:                                               ; preds = %99, %96, %26
  %36 = call ptr @hash_seq_search(ptr noundef %5)
  store ptr %36, ptr %4, align 8
  %37 = icmp ne ptr %36, null
  br i1 %37, label %38, label %100

38:                                               ; preds = %35
  %39 = load ptr, ptr %4, align 8
  %40 = getelementptr inbounds nuw %struct.PROCLOCK, ptr %39, i32 0, i32 2
  %41 = load i32, ptr %40, align 8
  %42 = and i32 %41, 256
  %43 = icmp ne i32 %42, 0
  br i1 %43, label %44, label %99

44:                                               ; preds = %38
  %45 = load ptr, ptr %4, align 8
  %46 = getelementptr inbounds nuw %struct.PROCLOCK, ptr %45, i32 0, i32 0
  %47 = getelementptr inbounds nuw %struct.PROCLOCKTAG, ptr %46, i32 0, i32 0
  %48 = load ptr, ptr %47, align 8
  %49 = getelementptr inbounds nuw %struct.LOCK, ptr %48, i32 0, i32 0
  %50 = getelementptr inbounds nuw %struct.LOCKTAG, ptr %49, i32 0, i32 4
  %51 = load i8, ptr %50, align 2
  %52 = zext i8 %51 to i32
  %53 = icmp eq i32 %52, 0
  br i1 %53, label %54, label %99

54:                                               ; preds = %44
  call void @llvm.lifetime.start.p0(i64 8, ptr %9) #9
  %55 = load ptr, ptr %4, align 8
  %56 = getelementptr inbounds nuw %struct.PROCLOCK, ptr %55, i32 0, i32 0
  %57 = getelementptr inbounds nuw %struct.PROCLOCKTAG, ptr %56, i32 0, i32 1
  %58 = load ptr, ptr %57, align 8
  store ptr %58, ptr %9, align 8
  call void @llvm.lifetime.start.p0(i64 8, ptr %10) #9
  %59 = load ptr, ptr %4, align 8
  %60 = getelementptr inbounds nuw %struct.PROCLOCK, ptr %59, i32 0, i32 0
  %61 = getelementptr inbounds nuw %struct.PROCLOCKTAG, ptr %60, i32 0, i32 0
  %62 = load ptr, ptr %61, align 8
  store ptr %62, ptr %10, align 8
  call void @llvm.lifetime.start.p0(i64 4, ptr %11) #9
  %63 = load ptr, ptr %9, align 8
  %64 = getelementptr inbounds nuw %struct.PGPROC, ptr %63, i32 0, i32 5
  %65 = load i32, ptr %64, align 4
  store i32 %65, ptr %11, align 4
  %66 = load i32, ptr %11, align 4
  %67 = icmp ne i32 %66, 0
  br i1 %67, label %69, label %68

68:                                               ; preds = %54
  store i32 5, ptr %12, align 4
  br label %96, !llvm.loop !68

69:                                               ; preds = %54
  %70 = load i32, ptr %11, align 4
  %71 = load ptr, ptr %3, align 8
  %72 = load i32, ptr %7, align 4
  %73 = sext i32 %72 to i64
  %74 = getelementptr inbounds %struct.xl_standby_lock, ptr %71, i64 %73
  %75 = getelementptr inbounds nuw %struct.xl_standby_lock, ptr %74, i32 0, i32 0
  store i32 %70, ptr %75, align 4
  %76 = load ptr, ptr %10, align 8
  %77 = getelementptr inbounds nuw %struct.LOCK, ptr %76, i32 0, i32 0
  %78 = getelementptr inbounds nuw %struct.LOCKTAG, ptr %77, i32 0, i32 0
  %79 = load i32, ptr %78, align 8
  %80 = load ptr, ptr %3, align 8
  %81 = load i32, ptr %7, align 4
  %82 = sext i32 %81 to i64
  %83 = getelementptr inbounds %struct.xl_standby_lock, ptr %80, i64 %82
  %84 = getelementptr inbounds nuw %struct.xl_standby_lock, ptr %83, i32 0, i32 1
  store i32 %79, ptr %84, align 4
  %85 = load ptr, ptr %10, align 8
  %86 = getelementptr inbounds nuw %struct.LOCK, ptr %85, i32 0, i32 0
  %87 = getelementptr inbounds nuw %struct.LOCKTAG, ptr %86, i32 0, i32 1
  %88 = load i32, ptr %87, align 4
  %89 = load ptr, ptr %3, align 8
  %90 = load i32, ptr %7, align 4
  %91 = sext i32 %90 to i64
  %92 = getelementptr inbounds %struct.xl_standby_lock, ptr %89, i64 %91
  %93 = getelementptr inbounds nuw %struct.xl_standby_lock, ptr %92, i32 0, i32 2
  store i32 %88, ptr %93, align 4
  %94 = load i32, ptr %7, align 4
  %95 = add i32 %94, 1
  store i32 %95, ptr %7, align 4
  store i32 0, ptr %12, align 4
  br label %96

96:                                               ; preds = %69, %68
  call void @llvm.lifetime.end.p0(i64 4, ptr %11) #9
  call void @llvm.lifetime.end.p0(i64 8, ptr %10) #9
  call void @llvm.lifetime.end.p0(i64 8, ptr %9) #9
  %97 = load i32, ptr %12, align 4
  switch i32 %97, label %115 [
    i32 0, label %98
    i32 5, label %35
  ]

98:                                               ; preds = %96
  br label %99

99:                                               ; preds = %98, %44, %38
  br label %35, !llvm.loop !68

100:                                              ; preds = %35
  store i32 16, ptr %6, align 4
  br label %101

101:                                              ; preds = %105, %100
  %102 = load i32, ptr %6, align 4
  %103 = add i32 %102, -1
  store i32 %103, ptr %6, align 4
  %104 = icmp sge i32 %103, 0
  br i1 %104, label %105, label %111

105:                                              ; preds = %101
  %106 = load ptr, ptr @MainLWLockArray, align 8
  %107 = load i32, ptr %6, align 4
  %108 = add i32 181, %107
  %109 = sext i32 %108 to i64
  %110 = getelementptr inbounds %union.LWLockPadded, ptr %106, i64 %109
  call void @LWLockRelease(ptr noundef %110)
  br label %101, !llvm.loop !69

111:                                              ; preds = %101
  %112 = load i32, ptr %7, align 4
  %113 = load ptr, ptr %2, align 8
  store i32 %112, ptr %113, align 4
  %114 = load ptr, ptr %3, align 8
  store i32 1, ptr %12, align 4
  call void @llvm.lifetime.end.p0(i64 4, ptr %8) #9
  call void @llvm.lifetime.end.p0(i64 4, ptr %7) #9
  call void @llvm.lifetime.end.p0(i64 4, ptr %6) #9
  call void @llvm.lifetime.end.p0(i64 32, ptr %5) #9
  call void @llvm.lifetime.end.p0(i64 8, ptr %4) #9
  call void @llvm.lifetime.end.p0(i64 8, ptr %3) #9
  ret ptr %114

115:                                              ; preds = %96
  unreachable
}