; Function Attrs: nounwind uwtable
define dso_local ptr @GetRunningTransactionLocks(ptr noundef writeonly captures(none) %0) local_unnamed_addr #0 {
  %2 = alloca %struct.HASH_SEQ_STATUS, align 8
  call void @llvm.lifetime.start.p0(i64 32, ptr nonnull %2) #17
  br label %3

3:                                                ; preds = %1, %3
  %indvars.iv = phi i64 [ 0, %1 ], [ %indvars.iv.next, %3 ]
  %4 = load ptr, ptr @MainLWLockArray, align 8
  %5 = getelementptr inbounds nuw %union.LWLockPadded, ptr %4, i64 %indvars.iv
  %6 = getelementptr inbounds nuw i8, ptr %5, i64 23168
  %7 = tail call zeroext i1 @LWLockAcquire(ptr noundef nonnull %6, i32 noundef 1) #17
  %indvars.iv.next = add nuw nsw i64 %indvars.iv, 1
  %exitcond.not = icmp eq i64 %indvars.iv.next, 16
  br i1 %exitcond.not, label %8, label %3, !llvm.loop !61

8:                                                ; preds = %3
  %9 = load ptr, ptr @LockMethodProcLockHash, align 8
  %10 = tail call i64 @hash_get_num_entries(ptr noundef %9) #17
  %sext = shl i64 %10, 32
  %11 = ashr exact i64 %sext, 32
  %12 = mul nsw i64 %11, 12
  %13 = tail call ptr @palloc(i64 noundef %12) #17
  %14 = load ptr, ptr @LockMethodProcLockHash, align 8
  call void @hash_seq_init(ptr noundef nonnull %2, ptr noundef %14) #17
  br label %.outer.outer

.outer.outer:                                     ; preds = %.thread, %8
  %.026.ph.ph = phi i32 [ %38, %.thread ], [ 0, %8 ]
  br label %.outer

.outer.loopexit:                                  ; preds = %21, %17
  br label %.outer

.outer:                                           ; preds = %.outer.outer, %.outer.loopexit
  br label %15

15:                                               ; preds = %.outer, %26
  %16 = call ptr @hash_seq_search(ptr noundef nonnull %2) #17
  %.not = icmp eq ptr %16, null
  br i1 %.not, label %.preheader, label %17

17:                                               ; preds = %15
  %18 = getelementptr inbounds nuw i8, ptr %16, i64 24
  %19 = load i32, ptr %18, align 8
  %20 = and i32 %19, 256
  %.not31 = icmp eq i32 %20, 0
  br i1 %.not31, label %.outer.loopexit, label %21, !llvm.loop !62

21:                                               ; preds = %17
  %22 = load ptr, ptr %16, align 8
  %23 = getelementptr inbounds nuw i8, ptr %22, i64 14
  %24 = load i8, ptr %23, align 2
  %25 = icmp eq i8 %24, 0
  br i1 %25, label %26, label %.outer.loopexit, !llvm.loop !62

26:                                               ; preds = %21
  %27 = getelementptr inbounds nuw i8, ptr %16, i64 8
  %28 = load ptr, ptr %27, align 8
  %29 = getelementptr inbounds nuw i8, ptr %28, i64 52
  %30 = load i32, ptr %29, align 4
  %.not32 = icmp eq i32 %30, 0
  br i1 %.not32, label %15, label %.thread, !llvm.loop !62

.thread:                                          ; preds = %26
  %31 = sext i32 %.026.ph.ph to i64
  %32 = getelementptr inbounds %struct.xl_standby_lock, ptr %13, i64 %31
  store i32 %30, ptr %32, align 4
  %33 = load i32, ptr %22, align 8
  %34 = getelementptr inbounds nuw i8, ptr %32, i64 4
  store i32 %33, ptr %34, align 4
  %35 = getelementptr inbounds nuw i8, ptr %22, i64 4
  %36 = load i32, ptr %35, align 4
  %37 = getelementptr inbounds nuw i8, ptr %32, i64 8
  store i32 %36, ptr %37, align 4
  %38 = add i32 %.026.ph.ph, 1
  br label %.outer.outer, !llvm.loop !62

.preheader:                                       ; preds = %15, %.preheader
  %indvars.iv41 = phi i64 [ %indvars.iv.next42, %.preheader ], [ 16, %15 ]
  %indvars.iv.next42 = add nsw i64 %indvars.iv41, -1
  %39 = load ptr, ptr @MainLWLockArray, align 8
  %40 = getelementptr %union.LWLockPadded, ptr %39, i64 %indvars.iv41
  %41 = getelementptr i8, ptr %40, i64 23040
  call void @LWLockRelease(ptr noundef nonnull %41) #17
  %42 = icmp ugt i64 %indvars.iv41, 1
  br i1 %42, label %.preheader, label %43, !llvm.loop !63

43:                                               ; preds = %.preheader
  store i32 %.026.ph.ph, ptr %0, align 4
  call void @llvm.lifetime.end.p0(i64 32, ptr nonnull %2) #17
  ret ptr %13
}